Certificate:
    Data:
        Version: 3 (0x2)
        Serial Number: 4097 (0x1001)
    Signature Algorithm: sha256WithRSAEncryption
        Issuer: C=CA, ST=Alberta, L=Edmonton, O=Group12_F16, OU=Development, CN=10.229.12.2 CA
        Validity
            Not Before: Dec  4 08:10:18 2016 GMT
            Not After : Dec  4 08:10:18 2017 GMT
        Subject: C=CA, ST=Alberta, L=Edmonton, O=Group12_F16 Web Services, OU=Development, CN=10.229.12.2
        Subject Public Key Info:
            Public Key Algorithm: rsaEncryption
                Public-Key: (4096 bit)
                Modulus:
                    00:a3:a6:a6:68:d6:10:27:d8:80:c8:a7:48:59:fe:
                    d5:5c:d9:ae:7e:2a:b6:e4:1b:73:95:ac:50:56:1f:
                    1e:71:e2:90:59:c2:dc:ef:ee:66:a7:84:c2:83:e3:
                    77:cb:08:bf:98:ef:cc:1b:d4:fa:4e:93:9a:ee:60:
                    ba:d7:8a:ea:7c:db:cf:5a:5a:37:c7:1a:ab:53:3d:
                    23:c2:61:1e:48:89:1a:be:33:b2:7a:57:4b:6a:59:
                    d4:6d:6d:53:a3:ec:33:cf:16:b3:e0:c7:80:f8:40:
                    bc:d2:8f:44:e6:3a:e1:5a:3d:14:15:18:36:37:9a:
                    fc:ce:ef:51:e7:61:f9:05:88:90:76:d5:31:8a:ca:
                    48:8c:93:75:11:88:64:1b:77:7f:52:d6:d8:18:e0:
                    20:05:4e:73:8d:26:d8:4d:a6:92:f0:15:fd:84:d1:
                    24:2f:d6:04:7a:66:d3:84:fc:b4:65:bb:1d:36:05:
                    63:ed:27:28:f6:60:59:c1:61:21:f9:b9:20:3e:64:
                    04:4a:88:b7:c2:fd:85:53:46:7a:f7:ea:87:cf:9d:
                    1f:d8:66:7a:3e:1f:dc:e9:32:0c:f6:2a:b2:4a:b6:
                    7c:9d:67:fd:d5:71:81:18:0f:85:09:33:b3:7e:20:
                    a4:05:c8:10:a6:7e:9f:1a:e0:e1:89:91:c0:ac:01:
                    0f:73:81:69:b0:81:5a:9a:34:63:36:77:e9:42:34:
                    7b:78:fc:12:78:74:64:58:be:fe:32:bb:b6:a7:52:
                    1e:fb:ff:5f:f2:c2:46:62:29:d4:20:6d:1a:42:86:
                    78:c6:4a:a1:dd:fa:d7:fb:d7:4a:25:e4:4f:9e:e1:
                    c7:f0:ea:84:62:f1:69:b6:34:61:09:53:dc:c3:91:
                    15:2f:d8:24:4c:3b:02:5d:ff:d0:89:0b:88:47:05:
                    0a:1d:df:f2:3a:96:de:a7:66:c7:57:7c:d3:a5:f8:
                    9a:59:52:f5:6d:e4:56:3b:42:2d:63:56:30:c8:af:
                    27:79:cb:1a:9b:ed:2c:61:05:11:c2:dc:12:98:9f:
                    26:78:90:2b:75:1f:c1:1b:14:5a:5a:d2:d5:23:b0:
                    79:d6:b6:7a:d0:60:0c:f8:83:e2:c9:96:e5:fe:15:
                    37:1c:8d:41:34:a8:ce:9a:f0:b3:c4:53:33:90:20:
                    7f:cc:25:9d:94:a6:fc:b8:8d:be:c7:47:eb:1e:16:
                    30:05:77:ee:31:83:08:1a:92:1e:54:36:40:e6:4c:
                    ca:b7:4b:7f:95:c3:d5:e8:37:c0:b5:30:ef:70:2e:
                    38:b1:b2:1e:98:ba:ad:82:06:8b:50:3e:7a:00:aa:
                    df:46:f1:4f:4f:fc:41:f1:63:aa:4f:59:60:09:fc:
                    67:af:fb
                Exponent: 65537 (0x10001)
        X509v3 extensions:
            X509v3 Basic Constraints: 
                CA:FALSE
            Netscape Comment: 
                OpenSSL Generated Certificate
            X509v3 Subject Key Identifier: 
                C4:F0:FC:01:17:BC:26:75:E6:9D:04:47:06:A3:91:6D:34:79:B7:40
            X509v3 Authority Key Identifier: 
                keyid:E7:2C:9E:26:D3:7D:2B:35:E1:94:48:8B:92:D3:C4:B4:F1:18:C9:1C

    Signature Algorithm: sha256WithRSAEncryption
         3c:1e:6f:e2:a8:9d:39:33:af:0d:53:14:1c:ed:2a:fa:70:b4:
         08:16:db:9a:e0:31:de:2d:65:cf:b4:f7:f6:c2:3d:1c:32:15:
         6b:ec:4b:7d:13:5e:6d:0e:72:c7:45:e7:be:8e:60:e7:6e:4d:
         b0:46:15:a5:0c:ff:f8:47:38:dc:96:b4:d1:47:ec:bb:01:6a:
         73:44:28:08:f6:9b:af:f8:6d:cc:70:eb:1a:7c:35:ed:b9:d4:
         da:75:e8:c5:88:c0:f1:fb:08:bf:fa:e1:99:ad:1c:8c:df:66:
         4d:eb:2a:6a:0b:14:61:10:41:a0:bb:79:b0:b8:f3:83:2a:48:
         5e:d4:d5:bb:86:ee:53:85:8d:52:e1:13:9c:46:a0:1e:2e:ba:
         31:d5:d5:6c:11:d0:02:6f:b5:ac:b8:db:d9:bd:da:c6:7b:ce:
         21:13:69:cf:7c:99:c3:58:41:f5:d1:3e:a4:41:c1:e2:70:0c:
         6d:7d:34:3a:44:16:11:fd:7a:71:dd:ed:ec:65:d5:f1:a0:27:
         f7:33:f5:65:37:c7:0b:bb:c6:f7:51:9f:e5:e0:c2:71:51:90:
         96:f8:90:d2:01:41:85:1a:86:96:b0:69:60:3b:43:11:0e:00:
         9e:e9:bb:c2:b7:85:c2:c0:e7:f9:bd:1b:84:94:f3:18:53:39:
         fd:0c:ba:7e:33:be:ea:86:e9:29:32:e7:ba:30:06:13:8d:ab:
         f2:09:3c:21:9b:ac:df:cb:bb:50:ea:36:a1:76:1e:a5:64:c2:
         d7:40:61:e2:2c:09:3a:5f:5c:95:d8:6d:17:c5:95:f0:0a:d2:
         3f:db:0a:25:1f:eb:b0:c5:36:d0:bd:6d:98:f7:5d:b2:94:2b:
         20:7c:4a:96:5a:a7:c5:e2:af:e3:81:99:ac:d4:b8:c4:36:87:
         23:e9:c9:54:d5:43:53:5f:c4:79:2e:40:df:ca:94:28:a0:9c:
         48:aa:33:e7:af:87:be:3a:b7:58:5b:0b:78:9c:e9:96:1e:82:
         ab:5d:74:36:90:1d:65:3d:01:56:59:c5:c1:3c:2c:31:6a:15:
         a4:77:e2:b0:19:12:f4:7b:28:e0:55:10:2a:f1:ff:76:b0:04:
         f1:c6:5a:b0:d3:92:fc:5c:e8:a1:d7:33:60:30:4f:21:1a:2b:
         18:77:f9:96:1c:4f:6a:1e:7e:91:a1:b5:8d:ce:77:9b:1d:d5:
         fe:5f:b1:50:da:72:53:ad:b0:ce:69:c6:8e:2a:06:98:95:2d:
         92:ae:b6:03:6d:2f:8c:00:8a:fd:4f:ab:2b:b4:dc:83:fa:4a:
         79:5a:a3:6b:c6:59:7c:17:98:7e:88:a6:7a:d9:eb:78:27:ec:
         f3:77:c7:b8:57:cb:2d:2e
-----BEGIN CERTIFICATE-----
MIIF8DCCA9igAwIBAgICEAEwDQYJKoZIhvcNAQELBQAwdzELMAkGA1UEBhMCQ0Ex
EDAOBgNVBAgTB0FsYmVydGExETAPBgNVBAcTCEVkbW9udG9uMRQwEgYDVQQKFAtH
cm91cDEyX0YxNjEUMBIGA1UECxMLRGV2ZWxvcG1lbnQxFzAVBgNVBAMTDjEwLjIy
OS4xMi4yIENBMB4XDTE2MTIwNDA4MTAxOFoXDTE3MTIwNDA4MTAxOFowgYExCzAJ
BgNVBAYTAkNBMRAwDgYDVQQIEwdBbGJlcnRhMREwDwYDVQQHEwhFZG1vbnRvbjEh
MB8GA1UEChQYR3JvdXAxMl9GMTYgV2ViIFNlcnZpY2VzMRQwEgYDVQQLEwtEZXZl
bG9wbWVudDEUMBIGA1UEAxMLMTAuMjI5LjEyLjIwggIiMA0GCSqGSIb3DQEBAQUA
A4ICDwAwggIKAoICAQCjpqZo1hAn2IDIp0hZ/tVc2a5+KrbkG3OVrFBWHx5x4pBZ
wtzv7manhMKD43fLCL+Y78wb1PpOk5ruYLrXiup8289aWjfHGqtTPSPCYR5IiRq+
M7J6V0tqWdRtbVOj7DPPFrPgx4D4QLzSj0TmOuFaPRQVGDY3mvzO71HnYfkFiJB2
1TGKykiMk3URiGQbd39S1tgY4CAFTnONJthNppLwFf2E0SQv1gR6ZtOE/LRlux02
BWPtJyj2YFnBYSH5uSA+ZARKiLfC/YVTRnr36ofPnR/YZno+H9zpMgz2KrJKtnyd
Z/3VcYEYD4UJM7N+IKQFyBCmfp8a4OGJkcCsAQ9zgWmwgVqaNGM2d+lCNHt4/BJ4
dGRYvv4yu7anUh77/1/ywkZiKdQgbRpChnjGSqHd+tf710ol5E+e4cfw6oRi8Wm2
NGEJU9zDkRUv2CRMOwJd/9CJC4hHBQod3/I6lt6nZsdXfNOl+JpZUvVt5FY7Qi1j
VjDIryd5yxqb7SxhBRHC3BKYnyZ4kCt1H8EbFFpa0tUjsHnWtnrQYAz4g+LJluX+
FTccjUE0qM6a8LPEUzOQIH/MJZ2Upvy4jb7HR+seFjAFd+4xgwgakh5UNkDmTMq3
S3+Vw9XoN8C1MO9wLjixsh6Yuq2CBotQPnoAqt9G8U9P/EHxY6pPWWAJ/Gev+wID
AQABo3sweTAJBgNVHRMEAjAAMCwGCWCGSAGG+EIBDQQfFh1PcGVuU1NMIEdlbmVy
YXRlZCBDZXJ0aWZpY2F0ZTAdBgNVHQ4EFgQUxPD8ARe8JnXmnQRHBqORbTR5t0Aw
HwYDVR0jBBgwFoAU5yyeJtN9KzXhlEiLktPEtPEYyRwwDQYJKoZIhvcNAQELBQAD
ggIBADweb+KonTkzrw1TFBztKvpwtAgW25rgMd4tZc+09/bCPRwyFWvsS30TXm0O
csdF576OYOduTbBGFaUM//hHONyWtNFH7LsBanNEKAj2m6/4bcxw6xp8Ne251Np1
6MWIwPH7CL/64ZmtHIzfZk3rKmoLFGEQQaC7ebC484MqSF7U1buG7lOFjVLhE5xG
oB4uujHV1WwR0AJvtay429m92sZ7ziETac98mcNYQfXRPqRBweJwDG19NDpEFhH9
enHd7exl1fGgJ/cz9WU3xwu7xvdRn+XgwnFRkJb4kNIBQYUahpawaWA7QxEOAJ7p
u8K3hcLA5/m9G4SU8xhTOf0Mun4zvuqG6Sky57owBhONq/IJPCGbrN/Lu1DqNqF2
HqVkwtdAYeIsCTpfXJXYbRfFlfAK0j/bCiUf67DFNtC9bZj3XbKUKyB8SpZap8Xi
r+OBmazUuMQ2hyPpyVTVQ1NfxHkuQN/KlCignEiqM+evh746t1hbC3ic6ZYegqtd
dDaQHWU9AVZZxcE8LDFqFaR34rAZEvR7KOBVECrx/3awBPHGWrDTkvxc6KHXM2Aw
TyEaKxh3+ZYcT2oefpGhtY3Od5sd1f5fsVDaclOtsM5pxo4qBpiVLZKutgNtL4wA
iv1Pqyu03IP6Snlao2vGWXwXmH6IpnrZ63gn7PN3x7hXyy0u
-----END CERTIFICATE-----
